Certificate:
    Data:
        Version: 3 (0x2)
        Serial Number: 4097 (0x1001)
        Signature Algorithm: sha1WithRSAEncryption
        Issuer: C=CA, ST=Ontario, L=Mississauga, O=CSC347, OU=UT, CN=Malaika Zaidi/emailAddress=malaika.zaidi@mail.utoronto.ca
        Validity
            Not Before: Dec  8 00:26:22 2020 GMT
            Not After : Dec  8 00:26:22 2021 GMT
        Subject: C=CA, ST=ON, L=MISSISSAUGA, O=Internet Widgits Pty Ltd, CN=Haider/emailAddress=haider.sajjad@mail.utoronto.ca
        Subject Public Key Info:
            Public Key Algorithm: rsaEncryption
                RSA Public-Key: (1024 bit)
                Modulus:
                    00:db:13:1c:f0:84:d6:d8:5b:35:d9:81:e6:d7:0a:
                    47:fb:39:10:61:00:fa:16:4a:43:30:a9:44:88:3e:
                    75:02:9a:b2:63:51:d2:5b:83:61:a8:08:3a:fa:fa:
                    5d:34:10:95:47:c6:9a:21:62:89:59:f9:cf:34:64:
                    e0:7c:87:12:2b:17:b0:f0:d8:91:f4:2c:c0:92:69:
                    c8:22:86:36:ec:93:5b:54:29:ad:05:07:9a:7d:ea:
                    80:ea:05:64:79:db:c3:77:fc:58:fc:6b:3e:07:d3:
                    6f:74:99:2e:cf:fb:c6:1f:bd:a0:f0:38:e5:71:86:
                    8e:36:fb:a2:07:3f:63:94:a1
                Exponent: 65537 (0x10001)
        X509v3 extensions:
            X509v3 Basic Constraints: 
                CA:FALSE
            Netscape Comment: 
                OpenSSL Generated Certificate
            X509v3 Subject Key Identifier: 
                90:D6:73:EA:C7:0B:86:6B:0E:C6:17:23:3E:92:B7:3A:7B:73:F0:D4
            X509v3 Authority Key Identifier: 
                keyid:AA:07:5A:89:2A:6D:2A:E7:47:7F:61:DD:85:71:88:29:63:1E:E5:A8

    Signature Algorithm: sha1WithRSAEncryption
         73:d1:8a:6c:b4:83:56:47:86:3f:6c:80:13:67:3a:ae:ab:85:
         fb:ed:56:6c:f4:c6:9b:2d:59:1e:58:89:b4:4b:cb:64:31:5d:
         a0:7c:9d:fe:d6:1a:59:4b:76:a5:bb:37:a1:1b:27:52:f6:2d:
         12:d2:84:28:3f:d3:f0:60:64:d7:01:9e:b5:3e:33:33:99:64:
         e5:72:f9:b3:5c:19:e7:27:25:28:c3:fc:04:48:e0:b1:15:c3:
         29:f6:71:35:61:73:8a:77:de:d5:19:d9:13:48:b0:89:1b:62:
         97:80:35:7c:71:c9:c3:cb:51:af:b8:0e:65:29:4c:1f:fa:1c:
         13:2e
-----BEGIN CERTIFICATE-----
MIIDITCCAoqgAwIBAgICEAEwDQYJKoZIhvcNAQEFBQAwgZoxCzAJBgNVBAYTAkNB
MRAwDgYDVQQIEwdPbnRhcmlvMRQwEgYDVQQHEwtNaXNzaXNzYXVnYTEPMA0GA1UE
ChMGQ1NDMzQ3MQswCQYDVQQLEwJVVDEWMBQGA1UEAxMNTWFsYWlrYSBaYWlkaTEt
MCsGCSqGSIb3DQEJARYebWFsYWlrYS56YWlkaUBtYWlsLnV0b3JvbnRvLmNhMB4X
DTIwMTIwODAwMjYyMloXDTIxMTIwODAwMjYyMlowgZMxCzAJBgNVBAYTAkNBMQsw
CQYDVQQIDAJPTjEUMBIGA1UEBwwLTUlTU0lTU0FVR0ExITAfBgNVBAoMGEludGVy
bmV0IFdpZGdpdHMgUHR5IEx0ZDEPMA0GA1UEAwwGSGFpZGVyMS0wKwYJKoZIhvcN
AQkBFh5oYWlkZXIuc2FqamFkQG1haWwudXRvcm9udG8uY2EwgZ8wDQYJKoZIhvcN
AQEBBQADgY0AMIGJAoGBANsTHPCE1thbNdmB5tcKR/s5EGEA+hZKQzCpRIg+dQKa
smNR0luDYagIOvr6XTQQlUfGmiFiiVn5zzRk4HyHEisXsPDYkfQswJJpyCKGNuyT
W1QprQUHmn3qgOoFZHnbw3f8WPxrPgfTb3SZLs/7xh+9oPA45XGGjjb7ogc/Y5Sh
AgMBAAGjezB5MAkGA1UdEwQCMAAwLAYJYIZIAYb4QgENBB8WHU9wZW5TU0wgR2Vu
ZXJhdGVkIENlcnRpZmljYXRlMB0GA1UdDgQWBBSQ1nPqxwuGaw7GFyM+krc6e3Pw
1DAfBgNVHSMEGDAWgBSqB1qJKm0q50d/Yd2FcYgpYx7lqDANBgkqhkiG9w0BAQUF
AAOBgQBz0YpstINWR4Y/bIATZzquq4X77VZs9MabLVkeWIm0S8tkMV2gfJ3+1hpZ
S3aluzehGydS9i0S0oQoP9PwYGTXAZ61PjMzmWTlcvmzXBnnJyUow/wESOCxFcMp
9nE1YXOKd97VGdkTSLCJG2KXgDV8ccnDy1GvuA5lKUwf+hwTLg==
-----END CERTIFICATE-----
