Certificate:
    Data:
        Version: 3 (0x2)
        Serial Number: 4096 (0x1000)
        Signature Algorithm: sha1WithRSAEncryption
        Issuer: C=CA, ST=ON, L=Mississauga, O=Internet Widgits Pty Ltd, CN=Haider Sajjad/emailAddress=haider.sajjad@mail.utoronto.ca
        Validity
            Not Before: Dec  8 00:55:08 2020 GMT
            Not After : Dec  8 00:55:08 2021 GMT
        Subject: C=CA, ST=Ontario, L=Mississauga, O=UTM, OU=CSC347, CN=Malaika Zaidi/emailAddress=malaika.zaidi@mail.utoronto.ca
        Subject Public Key Info:
            Public Key Algorithm: rsaEncryption
                RSA Public-Key: (1024 bit)
                Modulus:
                    00:d6:9d:4f:66:9e:fd:a8:87:c6:44:43:35:6c:45:
                    1d:51:a7:5e:f7:5b:5f:00:bf:19:21:f9:e9:15:cb:
                    f0:1d:7e:57:20:bb:15:f5:f2:25:f8:5d:09:ef:87:
                    df:14:31:b8:40:cb:33:38:e0:44:1a:6d:5c:ad:29:
                    6c:e2:54:db:a8:82:91:be:00:4c:30:da:f3:0c:27:
                    f6:3a:8d:b1:3a:8b:5d:1d:93:d9:59:57:4f:41:f9:
                    bf:6a:1a:21:d4:3c:53:e4:78:4c:12:98:89:22:55:
                    3f:f1:0d:23:23:92:0b:0e:b4:90:31:1d:0d:aa:82:
                    8f:9f:4d:a3:37:0c:85:d4:71
                Exponent: 65537 (0x10001)
        X509v3 extensions:
            X509v3 Basic Constraints: 
                CA:FALSE
            Netscape Comment: 
                OpenSSL Generated Certificate
            X509v3 Subject Key Identifier: 
                0F:F9:43:1F:B8:B6:B7:53:5E:E7:18:26:28:41:F9:16:62:B3:3B:19
            X509v3 Authority Key Identifier: 
                keyid:FF:A2:45:59:AB:C7:CC:66:97:C2:44:9E:F6:84:B6:37:A4:E7:CD:8C

    Signature Algorithm: sha1WithRSAEncryption
         79:01:22:9c:18:5a:02:45:fa:95:2e:51:5a:74:bd:bb:bd:91:
         5c:6f:ce:e6:f6:3a:d0:11:14:ca:46:06:94:3d:af:04:19:a6:
         23:16:0f:17:0d:f2:8f:92:c8:3d:19:53:61:7f:68:f3:c6:6a:
         1c:03:27:75:e9:5f:c4:41:60:6a:d2:65:6c:34:df:ae:a8:c5:
         6f:d0:57:92:49:8c:84:e7:e4:14:fc:1c:f0:3f:0b:a7:58:33:
         47:2b:45:e3:30:07:9c:86:b0:2a:7f:d4:2b:82:fe:59:62:ce:
         ba:78:d5:66:45:fc:4d:83:6e:07:f4:d6:ce:e7:32:1c:ad:3a:
         50:d0
-----BEGIN CERTIFICATE-----
MIIDKTCCApKgAwIBAgICEAAwDQYJKoZIhvcNAQEFBQAwgZoxCzAJBgNVBAYTAkNB
MQswCQYDVQQIEwJPTjEUMBIGA1UEBxMLTWlzc2lzc2F1Z2ExITAfBgNVBAoTGElu
dGVybmV0IFdpZGdpdHMgUHR5IEx0ZDEWMBQGA1UEAxMNSGFpZGVyIFNhamphZDEt
MCsGCSqGSIb3DQEJARYeaGFpZGVyLnNhamphZEBtYWlsLnV0b3JvbnRvLmNhMB4X
DTIwMTIwODAwNTUwOFoXDTIxMTIwODAwNTUwOFowgZsxCzAJBgNVBAYTAkNBMRAw
DgYDVQQIDAdPbnRhcmlvMRQwEgYDVQQHDAtNaXNzaXNzYXVnYTEMMAoGA1UECgwD
VVRNMQ8wDQYDVQQLDAZDU0MzNDcxFjAUBgNVBAMMDU1hbGFpa2EgWmFpZGkxLTAr
BgkqhkiG9w0BCQEWHm1hbGFpa2EuemFpZGlAbWFpbC51dG9yb250by5jYTCBnzAN
BgkqhkiG9w0BAQEFAAOBjQAwgYkCgYEA1p1PZp79qIfGREM1bEUdUade91tfAL8Z
IfnpFcvwHX5XILsV9fIl+F0J74ffFDG4QMszOOBEGm1crSls4lTbqIKRvgBMMNrz
DCf2Oo2xOotdHZPZWVdPQfm/ahoh1DxT5HhMEpiJIlU/8Q0jI5ILDrSQMR0NqoKP
n02jNwyF1HECAwEAAaN7MHkwCQYDVR0TBAIwADAsBglghkgBhvhCAQ0EHxYdT3Bl
blNTTCBHZW5lcmF0ZWQgQ2VydGlmaWNhdGUwHQYDVR0OBBYEFA/5Qx+4trdTXucY
JihB+RZiszsZMB8GA1UdIwQYMBaAFP+iRVmrx8xml8JEnvaEtjek582MMA0GCSqG
SIb3DQEBBQUAA4GBAHkBIpwYWgJF+pUuUVp0vbu9kVxvzub2OtARFMpGBpQ9rwQZ
piMWDxcN8o+SyD0ZU2F/aPPGahwDJ3XpX8RBYGrSZWw0366oxW/QV5JJjITn5BT8
HPA/C6dYM0crReMwB5yGsCp/1CuC/llizrp41WZF/E2Dbgf01s7nMhytOlDQ
-----END CERTIFICATE-----
