Certificate:
    Data:
        Version: 3 (0x2)
        Serial Number: 4096 (0x1000)
        Signature Algorithm: sha1WithRSAEncryption
        Issuer: C=CA, ST=Ontario, L=Mississauga, O=UofT Mississauga, OU=MCS, CN=arnoldsCA/emailAddress=arnold@cs.toronto.edu
        Validity
            Not Before: Nov 23 18:43:10 2020 GMT
            Not After : Nov 23 18:43:10 2021 GMT
        Subject: C=CA, ST=Ontario, L=Toronto, O=Three Little Pigs Inc., OU=web technologies, CN=wolf.bigbad.com/emailAddress=professor@bigbad.com
        Subject Public Key Info:
            Public Key Algorithm: rsaEncryption
                RSA Public-Key: (1024 bit)
                Modulus:
                    00:ba:36:d4:68:29:be:f5:a2:95:b0:10:03:31:76:
                    6a:a5:83:93:d3:c8:1f:9e:7c:20:d0:b6:26:62:2a:
                    90:82:53:58:c5:65:aa:44:ba:d1:af:38:61:b8:a1:
                    f9:b6:25:df:95:20:19:18:f7:b8:27:e2:0e:a0:66:
                    5d:17:da:8b:5b:fa:1e:a0:cc:b3:bd:b6:2f:9d:0d:
                    f6:10:b2:a7:57:3c:50:20:e9:71:3a:b3:a4:d5:02:
                    09:5a:a7:5a:fd:85:8f:e3:f0:20:8e:57:09:42:bb:
                    dd:00:19:6a:d4:0a:bd:bb:bd:e2:77:98:c0:4c:0f:
                    53:9c:b0:06:19:48:5c:37:0f
                Exponent: 65537 (0x10001)
        X509v3 extensions:
            X509v3 Basic Constraints: 
                CA:FALSE
            Netscape Comment: 
                OpenSSL Generated Certificate
            X509v3 Subject Key Identifier: 
                8C:27:85:51:C9:1E:0C:A0:53:29:9D:44:3E:E5:44:F0:47:4A:92:3D
            X509v3 Authority Key Identifier: 
                keyid:B9:7D:4A:DF:32:3F:E1:29:6A:3C:60:EA:9F:54:19:06:A3:A1:15:28

    Signature Algorithm: sha1WithRSAEncryption
         2b:13:27:ea:88:a2:ff:87:d7:cf:db:ab:45:7a:39:59:ea:bc:
         a2:f4:4e:1b:63:f4:92:1d:0b:71:54:d0:93:ce:2f:8d:ca:78:
         5e:74:7d:e7:3a:ed:14:aa:47:51:07:10:8e:8a:f5:9b:4b:16:
         2a:fb:b5:20:e5:7f:01:29:61:11:b8:4f:69:09:17:ef:08:59:
         75:ee:5e:1b:f9:0f:c4:9e:9c:f1:00:7d:d2:a5:af:df:eb:a9:
         cc:7c:ba:22:2f:26:0a:4a:c8:a9:55:a2:c2:10:07:27:ed:ee:
         61:81:cb:59:c8:e5:a4:0f:68:40:58:0d:9e:2a:37:eb:d1:03:
         95:61
-----BEGIN CERTIFICATE-----
MIIDODCCAqGgAwIBAgICEAAwDQYJKoZIhvcNAQEFBQAwgZgxCzAJBgNVBAYTAkNB
MRAwDgYDVQQIEwdPbnRhcmlvMRQwEgYDVQQHEwtNaXNzaXNzYXVnYTEZMBcGA1UE
ChMQVW9mVCBNaXNzaXNzYXVnYTEMMAoGA1UECxMDTUNTMRIwEAYDVQQDEwlhcm5v
bGRzQ0ExJDAiBgkqhkiG9w0BCQEWFWFybm9sZEBjcy50b3JvbnRvLmVkdTAeFw0y
MDExMjMxODQzMTBaFw0yMTExMjMxODQzMTBaMIGsMQswCQYDVQQGEwJDQTEQMA4G
A1UECAwHT250YXJpbzEQMA4GA1UEBwwHVG9yb250bzEfMB0GA1UECgwWVGhyZWUg
TGl0dGxlIFBpZ3MgSW5jLjEZMBcGA1UECwwQd2ViIHRlY2hub2xvZ2llczEYMBYG
A1UEAwwPd29sZi5iaWdiYWQuY29tMSMwIQYJKoZIhvcNAQkBFhRwcm9mZXNzb3JA
YmlnYmFkLmNvbTCBnzANBgkqhkiG9w0BAQEFAAOBjQAwgYkCgYEAujbUaCm+9aKV
sBADMXZqpYOT08gfnnwg0LYmYiqQglNYxWWqRLrRrzhhuKH5tiXflSAZGPe4J+IO
oGZdF9qLW/oeoMyzvbYvnQ32ELKnVzxQIOlxOrOk1QIJWqda/YWP4/AgjlcJQrvd
ABlq1Aq9u73id5jATA9TnLAGGUhcNw8CAwEAAaN7MHkwCQYDVR0TBAIwADAsBglg
hkgBhvhCAQ0EHxYdT3BlblNTTCBHZW5lcmF0ZWQgQ2VydGlmaWNhdGUwHQYDVR0O
BBYEFIwnhVHJHgygUymdRD7lRPBHSpI9MB8GA1UdIwQYMBaAFLl9St8yP+Epajxg
6p9UGQajoRUoMA0GCSqGSIb3DQEBBQUAA4GBACsTJ+qIov+H18/bq0V6OVnqvKL0
Thtj9JIdC3FU0JPOL43KeF50fec67RSqR1EHEI6K9ZtLFir7tSDlfwEpYRG4T2kJ
F+8IWXXuXhv5D8SenPEAfdKlr9/rqcx8uiIvJgpKyKlVosIQByft7mGBy1nI5aQP
aEBYDZ4qN+vRA5Vh
-----END CERTIFICATE-----
